Certificate:
    Data:
        Version: 3 (0x2)
        Serial Number: 1 (0x1)
    Signature Algorithm: sha256WithRSAEncryption
        Issuer: C=EG, ST=Cairo, L=Cairo, O=QuickStor, OU=QStor, CN=QuickStor CA/name=EasyRSA/emailAddress=sales@quickstor.net
        Validity
            Not Before: Jul 20 20:20:35 2015 GMT
            Not After : Jul 17 20:20:35 2025 GMT
        Subject: C=EG, ST=Cairo, L=Cairo, O=QuickStor, OU=QStor, CN=RepliProxy.quickstor.net/name=EasyRSA/emailAddress=sales@quickstor.net
        Subject Public Key Info:
            Public Key Algorithm: rsaEncryption
                Public-Key: (2048 bit)
                Modulus:
                    00:bd:7a:71:86:00:d3:46:b4:03:34:4f:0e:7a:ff:
                    ed:27:91:e2:8a:e8:7e:3a:8a:6f:4c:df:f0:08:0d:
                    2c:97:62:c9:4a:76:ab:5b:a7:3e:43:c3:9b:1e:ec:
                    b9:9a:68:c8:cd:99:6d:c3:e7:02:2f:ac:81:d8:04:
                    67:5c:7a:f4:a0:b1:56:e2:3a:de:08:5e:2a:fc:ab:
                    7c:78:75:8f:2f:7d:e0:97:bc:a0:26:12:50:57:8c:
                    19:c1:95:fa:08:01:73:d5:05:3d:d8:51:a4:70:af:
                    19:59:7c:ea:e7:7d:1c:0f:e9:12:1a:a6:0c:20:d3:
                    8c:ea:a8:d4:f3:47:4d:d7:4b:2c:4d:b9:99:e6:eb:
                    64:05:af:6e:b2:db:e8:55:8a:8f:38:fd:45:57:44:
                    4f:28:9d:4d:b1:92:a3:5a:f4:27:e6:b9:f9:5a:c5:
                    73:d5:70:fc:2e:67:4f:8f:fc:b7:a2:3f:32:5f:75:
                    8c:59:6f:38:a0:e0:f8:56:19:e6:18:3e:5c:dd:d1:
                    4b:df:2d:44:e3:40:db:29:ec:dc:17:52:f6:71:4d:
                    ce:41:72:23:76:ef:df:0c:2d:7a:60:ef:d1:07:a3:
                    99:71:92:cd:88:c8:75:af:f3:b9:9b:d5:7c:4f:5e:
                    65:6c:f7:9c:35:14:ce:4d:ee:f3:2c:9c:8d:55:6f:
                    20:d5
                Exponent: 65537 (0x10001)
        X509v3 extensions:
            X509v3 Basic Constraints: 
                CA:FALSE
            Netscape Cert Type: 
                SSL Server
            Netscape Comment: 
                Easy-RSA Generated Server Certificate
            X509v3 Subject Key Identifier: 
                5C:19:C7:0A:DE:CB:B8:DA:91:1C:2E:48:1C:FE:BD:D3:24:1E:98:92
            X509v3 Authority Key Identifier: 
                keyid:35:96:1D:B6:6F:08:6D:14:95:66:AB:18:C7:63:6B:B0:C0:0B:65:EC
                DirName:/C=EG/ST=Cairo/L=Cairo/O=QuickStor/OU=QStor/CN=QuickStor CA/name=EasyRSA/emailAddress=sales@quickstor.net
                serial:D8:22:35:2F:82:DA:44:DD

            X509v3 Extended Key Usage: 
                TLS Web Server Authentication
            X509v3 Key Usage: 
                Digital Signature, Key Encipherment
    Signature Algorithm: sha256WithRSAEncryption
         7b:79:e3:4d:09:34:1c:e9:a1:68:f9:d8:91:dc:a4:5e:20:d9:
         07:dd:e6:1e:17:ee:a0:c0:08:c0:fa:48:1f:c5:bc:4f:02:73:
         20:be:9a:73:9d:ae:44:b0:11:79:9c:88:dd:d8:88:5d:98:bf:
         2d:13:76:60:38:a8:51:b3:2b:86:a0:c2:0a:10:6b:ec:90:c3:
         59:79:62:92:f8:1c:1b:c5:3c:60:07:47:4d:c3:fa:39:58:de:
         5e:08:a4:55:e2:f0:39:46:fb:01:9d:81:ff:d1:35:6b:06:67:
         ee:84:15:2c:c0:39:6d:48:9e:c3:c5:92:3f:f4:de:7e:36:dc:
         08:a4:c1:5f:b5:6f:42:b0:08:dc:f7:b8:fc:1a:32:a7:85:a9:
         b0:72:b9:ab:a5:90:9a:82:14:de:92:a0:d0:a5:0f:94:f0:66:
         d2:66:22:e7:6b:ca:a9:72:5c:e2:25:bc:9c:c2:14:06:47:f5:
         24:d9:88:3b:b6:ff:ac:e5:b4:4f:36:38:6e:eb:39:09:f0:54:
         eb:52:47:67:d8:c5:cd:eb:04:f9:26:93:7f:f7:29:bd:7c:f9:
         b9:39:d9:15:67:f3:6b:0d:f1:29:16:6f:82:47:67:cf:a3:18:
         3c:ee:ab:b0:1d:dc:46:23:0f:8b:29:f0:42:e1:9f:53:db:28:
         a8:c9:4f:33
-----BEGIN CERTIFICATE-----
MIIFNjCCBB6gAwIBAgIBATANBgkqhkiG9w0BAQsFADCBnjELMAkGA1UEBhMCRUcx
DjAMBgNVBAgTBUNhaXJvMQ4wDAYDVQQHEwVDYWlybzESMBAGA1UEChMJUXVpY2tT
dG9yMQ4wDAYDVQQLEwVRU3RvcjEVMBMGA1UEAxMMUXVpY2tTdG9yIENBMRAwDgYD
VQQpEwdFYXN5UlNBMSIwIAYJKoZIhvcNAQkBFhNzYWxlc0BxdWlja3N0b3IubmV0
MB4XDTE1MDcyMDIwMjAzNVoXDTI1MDcxNzIwMjAzNVowgaoxCzAJBgNVBAYTAkVH
MQ4wDAYDVQQIEwVDYWlybzEOMAwGA1UEBxMFQ2Fpcm8xEjAQBgNVBAoTCVF1aWNr
U3RvcjEOMAwGA1UECxMFUVN0b3IxITAfBgNVBAMTGFJlcGxpUHJveHkucXVpY2tz
dG9yLm5ldDEQMA4GA1UEKRMHRWFzeVJTQTEiMCAGCSqGSIb3DQEJARYTc2FsZXNA
cXVpY2tzdG9yLm5ldDCCASIwDQYJKoZIhvcNAQEBBQADggEPADCCAQoCggEBAL16
cYYA00a0AzRPDnr/7SeR4orofjqKb0zf8AgNLJdiyUp2q1unPkPDmx7suZpoyM2Z
bcPnAi+sgdgEZ1x69KCxVuI63gheKvyrfHh1jy994Je8oCYSUFeMGcGV+ggBc9UF
PdhRpHCvGVl86ud9HA/pEhqmDCDTjOqo1PNHTddLLE25mebrZAWvbrLb6FWKjzj9
RVdETyidTbGSo1r0J+a5+VrFc9Vw/C5nT4/8t6I/Ml91jFlvOKDg+FYZ5hg+XN3R
S98tRONA2yns3BdS9nFNzkFyI3bv3wwtemDv0QejmXGSzYjIda/zuZvVfE9eZWz3
nDUUzk3u8yycjVVvINUCAwEAAaOCAW8wggFrMAkGA1UdEwQCMAAwEQYJYIZIAYb4
QgEBBAQDAgZAMDQGCWCGSAGG+EIBDQQnFiVFYXN5LVJTQSBHZW5lcmF0ZWQgU2Vy
dmVyIENlcnRpZmljYXRlMB0GA1UdDgQWBBRcGccK3su42pEcLkgc/r3TJB6YkjCB
0wYDVR0jBIHLMIHIgBQ1lh22bwhtFJVmqxjHY2uwwAtl7KGBpKSBoTCBnjELMAkG
A1UEBhMCRUcxDjAMBgNVBAgTBUNhaXJvMQ4wDAYDVQQHEwVDYWlybzESMBAGA1UE
ChMJUXVpY2tTdG9yMQ4wDAYDVQQLEwVRU3RvcjEVMBMGA1UEAxMMUXVpY2tTdG9y
IENBMRAwDgYDVQQpEwdFYXN5UlNBMSIwIAYJKoZIhvcNAQkBFhNzYWxlc0BxdWlj
a3N0b3IubmV0ggkA2CI1L4LaRN0wEwYDVR0lBAwwCgYIKwYBBQUHAwEwCwYDVR0P
BAQDAgWgMA0GCSqGSIb3DQEBCwUAA4IBAQB7eeNNCTQc6aFo+diR3KReINkH3eYe
F+6gwAjA+kgfxbxPAnMgvppzna5EsBF5nIjd2IhdmL8tE3ZgOKhRsyuGoMIKEGvs
kMNZeWKS+BwbxTxgB0dNw/o5WN5eCKRV4vA5RvsBnYH/0TVrBmfuhBUswDltSJ7D
xZI/9N5+NtwIpMFftW9CsAjc97j8GjKnhamwcrmrpZCaghTekqDQpQ+U8GbSZiLn
a8qpclziJbycwhQGR/Uk2Yg7tv+s5bRPNjhu6zkJ8FTrUkdn2MXN6wT5JpN/9ym9
fPm5OdkVZ/NrDfEpFm+CR2fPoxg87quwHdxGIw+LKfBC4Z9T2yioyU8z
-----END CERTIFICATE-----
